target datalayout = "e-m:e-p270:32:32-p271:32:32-p272:64:64-i64:64-i128:128-f80:128-n8:16:32:64-S128"
target triple = "x86_64-pc-linux-gnu"

%"class.boost::system::error_code" = type { %union.anon.6, i64 }
%union.anon.6 = type { %"struct.boost::system::error_code::data" }
%"struct.boost::system::error_code::data" = type { i32, ptr }
%"class.boost::core::basic_string_view" = type { ptr, i64 }
%"union.boost::variant2::detail::variant_storage_impl.5" = type { %"class.boost::system::error_code" }
%"class.boost::system::result.8" = type { %"class.boost::variant2::variant.9" }
%"class.boost::variant2::variant.9" = type { %"struct.boost::variant2::detail::variant_ma_base_impl.base.21", [4 x i8] }
%"struct.boost::variant2::detail::variant_ma_base_impl.base.21" = type { %"struct.boost::variant2::detail::variant_mc_base_impl.base.20" }
%"struct.boost::variant2::detail::variant_mc_base_impl.base.20" = type { %"struct.boost::variant2::detail::variant_ca_base_impl.base.19" }
%"struct.boost::variant2::detail::variant_ca_base_impl.base.19" = type { %"struct.boost::variant2::detail::variant_cc_base_impl.base.18" }
%"struct.boost::variant2::detail::variant_cc_base_impl.base.18" = type { %"struct.boost::variant2::detail::variant_base_impl.base.17" }
%"struct.boost::variant2::detail::variant_base_impl.base.17" = type <{ %"union.boost::variant2::detail::variant_storage_impl.15", i32 }>
%"union.boost::variant2::detail::variant_storage_impl.15" = type { %"union.boost::variant2::detail::variant_storage_impl.16" }
%"union.boost::variant2::detail::variant_storage_impl.16" = type { %"union.boost::variant2::detail::variant_storage_impl.5" }
%"struct.boost::variant2::detail::variant_base_impl.14" = type <{ %"union.boost::variant2::detail::variant_storage_impl.15", i32, [4 x i8] }>

; Function Attrs: mustprogress nounwind uwtable
define linkonce_odr hidden void @_ZN5boost8variant26detail20variant_storage_implISt17integral_constantIbLb1EEJNS_6system10error_codeEEEC2IJS6_EEES3_ImLm0EEDpOT_(ptr noundef nonnull align 8 dereferenceable(24) %0, ptr noundef nonnull align 8 dereferenceable(24) %1) unnamed_addr #2 comdat align 2 {
  %3 = alloca ptr, align 8
  %4 = alloca ptr, align 8
  store ptr %0, ptr %3, align 8, !tbaa !3
  store ptr %1, ptr %4, align 8, !tbaa !3
  %5 = load ptr, ptr %3, align 8
  %6 = load ptr, ptr %4, align 8, !tbaa !3
  call void @llvm.memcpy.p0.p0.i64(ptr align 8 %5, ptr align 8 %6, i64 24, i1 false), !tbaa.struct !55
  ret void
}

; Function Attrs: mustprogress nounwind uwtable
define linkonce_odr hidden void @_ZN5boost8variant26detail20variant_storage_implISt17integral_constantIbLb1EEJPKNS_4json5valueENS_6system10error_codeEEEC2IJS8_EEES3_ImLm0EEDpOT_(ptr noundef nonnull align 8 dereferenceable(24) %0, ptr noundef nonnull align 8 dereferenceable(8) %1) unnamed_addr #2 comdat align 2 {
  %3 = alloca ptr, align 8
  %4 = alloca ptr, align 8
  store ptr %0, ptr %3, align 8, !tbaa !3
  store ptr %1, ptr %4, align 8, !tbaa !3
  %5 = load ptr, ptr %3, align 8
  %6 = load ptr, ptr %4, align 8, !tbaa !3
  %7 = load ptr, ptr %6, align 8, !tbaa !3
  store ptr %7, ptr %5, align 8, !tbaa !56
  ret void
}

; Function Attrs: mustprogress uwtable
define linkonce_odr hidden void @_ZN5boost8variant26detail20variant_storage_implISt17integral_constantIbLb1EEJPKNS_4json5valueENS_6system10error_codeEEEC2ILm1EJSA_EEES3_ImXT_EEDpOT0_(ptr noundef nonnull align 8 dereferenceable(24) %0, ptr noundef nonnull align 8 dereferenceable(24) %1) unnamed_addr #5 comdat align 2 {
  %3 = alloca ptr, align 8
  %4 = alloca ptr, align 8
  store ptr %0, ptr %3, align 8, !tbaa !3
  store ptr %1, ptr %4, align 8, !tbaa !3
  %5 = load ptr, ptr %3, align 8
  %6 = load ptr, ptr %4, align 8, !tbaa !3
  call void @_ZN5boost8variant26detail20variant_storage_implISt17integral_constantIbLb1EEJNS_6system10error_codeEEEC2IJS6_EEES3_ImLm0EEDpOT_(ptr noundef nonnull align 8 dereferenceable(24) %5, ptr noundef nonnull align 8 dereferenceable(24) %6)
  ret void
}

; Function Attrs: mustprogress uwtable
define linkonce_odr hidden void @_ZN5boost8variant26detail20variant_storage_implISt17integral_constantIbLb1EEJNS1_4noneEPKNS_4json5valueENS_6system10error_codeEEEC2ILm1EJS9_EEES3_ImXT_EEDpOT0_(ptr noundef nonnull align 8 dereferenceable(24) %0, ptr noundef nonnull align 8 dereferenceable(8) %1) unnamed_addr #5 comdat align 2 {
  %3 = alloca ptr, align 8
  %4 = alloca ptr, align 8
  store ptr %0, ptr %3, align 8, !tbaa !3
  store ptr %1, ptr %4, align 8, !tbaa !3
  %5 = load ptr, ptr %3, align 8
  %6 = load ptr, ptr %4, align 8, !tbaa !3
  call void @_ZN5boost8variant26detail20variant_storage_implISt17integral_constantIbLb1EEJPKNS_4json5valueENS_6system10error_codeEEEC2IJS8_EEES3_ImLm0EEDpOT_(ptr noundef nonnull align 8 dereferenceable(24) %5, ptr noundef nonnull align 8 dereferenceable(8) %6)
  ret void
}

; Function Attrs: mustprogress uwtable
define linkonce_odr hidden void @_ZN5boost8variant26detail20variant_storage_implISt17integral_constantIbLb1EEJNS1_4noneEPKNS_4json5valueENS_6system10error_codeEEEC2ILm2EJSB_EEES3_ImXT_EEDpOT0_(ptr noundef nonnull align 8 dereferenceable(24) %0, ptr noundef nonnull align 8 dereferenceable(24) %1) unnamed_addr #5 comdat align 2 {
  %3 = alloca ptr, align 8
  %4 = alloca ptr, align 8
  store ptr %0, ptr %3, align 8, !tbaa !3
  store ptr %1, ptr %4, align 8, !tbaa !3
  %5 = load ptr, ptr %3, align 8
  %6 = load ptr, ptr %4, align 8, !tbaa !3
  call void @_ZN5boost8variant26detail20variant_storage_implISt17integral_constantIbLb1EEJPKNS_4json5valueENS_6system10error_codeEEEC2ILm1EJSA_EEES3_ImXT_EEDpOT0_(ptr noundef nonnull align 8 dereferenceable(24) %5, ptr noundef nonnull align 8 dereferenceable(24) %6)
  ret void
}

; Function Attrs: mustprogress uwtable
define linkonce_odr hidden void @_ZN5boost8variant26detail17variant_base_implILb1ELb1EJPKNS_4json5valueENS_6system10error_codeEEEC2ISt17integral_constantImLm0EEJS6_EEET_DpOT0_(ptr noundef nonnull align 8 dereferenceable(28) %0, ptr noundef nonnull align 8 dereferenceable(8) %1) unnamed_addr #5 comdat align 2 {
  %3 = alloca ptr, align 8
  %4 = alloca ptr, align 8
  store ptr %0, ptr %3, align 8, !tbaa !3
  store ptr %1, ptr %4, align 8, !tbaa !3
  %5 = load ptr, ptr %3, align 8
  %6 = getelementptr inbounds nuw %"struct.boost::variant2::detail::variant_base_impl.14", ptr %5, i32 0, i32 0
  %7 = load ptr, ptr %4, align 8, !tbaa !3
  call void @_ZN5boost8variant26detail20variant_storage_implISt17integral_constantIbLb1EEJNS1_4noneEPKNS_4json5valueENS_6system10error_codeEEEC2ILm1EJS9_EEES3_ImXT_EEDpOT0_(ptr noundef nonnull align 8 dereferenceable(24) %6, ptr noundef nonnull align 8 dereferenceable(8) %7)
  %8 = getelementptr inbounds nuw %"struct.boost::variant2::detail::variant_base_impl.14", ptr %5, i32 0, i32 1
  store i32 1, ptr %8, align 8, !tbaa !297
  ret void
}

; Function Attrs: mustprogress uwtable
define linkonce_odr hidden void @_ZN5boost8variant26detail17variant_base_implILb1ELb1EJPKNS_4json5valueENS_6system10error_codeEEEC2ISt17integral_constantImLm1EEJS8_EEET_DpOT0_(ptr noundef nonnull align 8 dereferenceable(28) %0, ptr noundef nonnull align 8 dereferenceable(24) %1) unnamed_addr #5 comdat align 2 {
  %3 = alloca ptr, align 8
  %4 = alloca ptr, align 8
  store ptr %0, ptr %3, align 8, !tbaa !3
  store ptr %1, ptr %4, align 8, !tbaa !3
  %5 = load ptr, ptr %3, align 8
  %6 = getelementptr inbounds nuw %"struct.boost::variant2::detail::variant_base_impl.14", ptr %5, i32 0, i32 0
  %7 = load ptr, ptr %4, align 8, !tbaa !3
  call void @_ZN5boost8variant26detail20variant_storage_implISt17integral_constantIbLb1EEJNS1_4noneEPKNS_4json5valueENS_6system10error_codeEEEC2ILm2EJSB_EEES3_ImXT_EEDpOT0_(ptr noundef nonnull align 8 dereferenceable(24) %6, ptr noundef nonnull align 8 dereferenceable(24) %7)
  %8 = getelementptr inbounds nuw %"struct.boost::variant2::detail::variant_base_impl.14", ptr %5, i32 0, i32 1
  store i32 2, ptr %8, align 8, !tbaa !297
  ret void
}

; Function Attrs: inlinehint mustprogress uwtable
define linkonce_odr hidden void @_ZN5boost8variant26detail20variant_cc_base_implILb1ELb1EJPKNS_4json5valueENS_6system10error_codeEEECI2NS1_17variant_base_implILb1ELb1EJS6_S8_EEEISt17integral_constantImLm0EEJS6_EEET_DpOT0_(ptr noundef nonnull align 8 dereferenceable(28) %0, ptr noundef nonnull align 8 dereferenceable(8) %1) unnamed_addr #0 comdat align 2 {
  %3 = alloca ptr, align 8
  %4 = alloca ptr, align 8
  store ptr %0, ptr %3, align 8, !tbaa !3
  store ptr %1, ptr %4, align 8, !tbaa !3
  %5 = load ptr, ptr %3, align 8
  %6 = load ptr, ptr %4, align 8
  call void @_ZN5boost8variant26detail17variant_base_implILb1ELb1EJPKNS_4json5valueENS_6system10error_codeEEEC2ISt17integral_constantImLm0EEJS6_EEET_DpOT0_(ptr noundef nonnull align 8 dereferenceable(28) %5, ptr noundef nonnull align 8 dereferenceable(8) %6)
  ret void
}

; Function Attrs: inlinehint mustprogress uwtable
define linkonce_odr hidden void @_ZN5boost8variant26detail20variant_cc_base_implILb1ELb1EJPKNS_4json5valueENS_6system10error_codeEEECI2NS1_17variant_base_implILb1ELb1EJS6_S8_EEEISt17integral_constantImLm1EEJS8_EEET_DpOT0_(ptr noundef nonnull align 8 dereferenceable(28) %0, ptr noundef nonnull align 8 dereferenceable(24) %1) unnamed_addr #0 comdat align 2 {
  %3 = alloca ptr, align 8
  %4 = alloca ptr, align 8
  store ptr %0, ptr %3, align 8, !tbaa !3
  store ptr %1, ptr %4, align 8, !tbaa !3
  %5 = load ptr, ptr %3, align 8
  %6 = load ptr, ptr %4, align 8
  call void @_ZN5boost8variant26detail17variant_base_implILb1ELb1EJPKNS_4json5valueENS_6system10error_codeEEEC2ISt17integral_constantImLm1EEJS8_EEET_DpOT0_(ptr noundef nonnull align 8 dereferenceable(28) %5, ptr noundef nonnull align 8 dereferenceable(24) %6)
  ret void
}

; Function Attrs: inlinehint mustprogress uwtable
define linkonce_odr hidden void @_ZN5boost8variant26detail20variant_ca_base_implILb1ELb1EJPKNS_4json5valueENS_6system10error_codeEEECI2NS1_17variant_base_implILb1ELb1EJS6_S8_EEEISt17integral_constantImLm0EEJS6_EEET_DpOT0_(ptr noundef nonnull align 8 dereferenceable(28) %0, ptr noundef nonnull align 8 dereferenceable(8) %1) unnamed_addr #0 comdat align 2 {
  %3 = alloca ptr, align 8
  %4 = alloca ptr, align 8
  store ptr %0, ptr %3, align 8, !tbaa !3
  store ptr %1, ptr %4, align 8, !tbaa !3
  %5 = load ptr, ptr %3, align 8
  %6 = load ptr, ptr %4, align 8
  call void @_ZN5boost8variant26detail20variant_cc_base_implILb1ELb1EJPKNS_4json5valueENS_6system10error_codeEEECI2NS1_17variant_base_implILb1ELb1EJS6_S8_EEEISt17integral_constantImLm0EEJS6_EEET_DpOT0_(ptr noundef nonnull align 8 dereferenceable(28) %5, ptr noundef nonnull align 8 dereferenceable(8) %6)
  ret void
}

; Function Attrs: inlinehint mustprogress uwtable
define linkonce_odr hidden void @_ZN5boost8variant26detail20variant_ca_base_implILb1ELb1EJPKNS_4json5valueENS_6system10error_codeEEECI2NS1_17variant_base_implILb1ELb1EJS6_S8_EEEISt17integral_constantImLm1EEJS8_EEET_DpOT0_(ptr noundef nonnull align 8 dereferenceable(28) %0, ptr noundef nonnull align 8 dereferenceable(24) %1) unnamed_addr #0 comdat align 2 {
  %3 = alloca ptr, align 8
  %4 = alloca ptr, align 8
  store ptr %0, ptr %3, align 8, !tbaa !3
  store ptr %1, ptr %4, align 8, !tbaa !3
  %5 = load ptr, ptr %3, align 8
  %6 = load ptr, ptr %4, align 8
  call void @_ZN5boost8variant26detail20variant_cc_base_implILb1ELb1EJPKNS_4json5valueENS_6system10error_codeEEECI2NS1_17variant_base_implILb1ELb1EJS6_S8_EEEISt17integral_constantImLm1EEJS8_EEET_DpOT0_(ptr noundef nonnull align 8 dereferenceable(28) %5, ptr noundef nonnull align 8 dereferenceable(24) %6)
  ret void
}

; Function Attrs: inlinehint mustprogress uwtable
define linkonce_odr hidden void @_ZN5boost8variant26detail20variant_mc_base_implILb1ELb1EJPKNS_4json5valueENS_6system10error_codeEEECI2NS1_17variant_base_implILb1ELb1EJS6_S8_EEEISt17integral_constantImLm0EEJS6_EEET_DpOT0_(ptr noundef nonnull align 8 dereferenceable(28) %0, ptr noundef nonnull align 8 dereferenceable(8) %1) unnamed_addr #0 comdat align 2 {
  %3 = alloca ptr, align 8
  %4 = alloca ptr, align 8
  store ptr %0, ptr %3, align 8, !tbaa !3
  store ptr %1, ptr %4, align 8, !tbaa !3
  %5 = load ptr, ptr %3, align 8
  %6 = load ptr, ptr %4, align 8
  call void @_ZN5boost8variant26detail20variant_ca_base_implILb1ELb1EJPKNS_4json5valueENS_6system10error_codeEEECI2NS1_17variant_base_implILb1ELb1EJS6_S8_EEEISt17integral_constantImLm0EEJS6_EEET_DpOT0_(ptr noundef nonnull align 8 dereferenceable(28) %5, ptr noundef nonnull align 8 dereferenceable(8) %6)
  ret void
}

; Function Attrs: inlinehint mustprogress uwtable
define linkonce_odr hidden void @_ZN5boost8variant26detail20variant_mc_base_implILb1ELb1EJPKNS_4json5valueENS_6system10error_codeEEECI2NS1_17variant_base_implILb1ELb1EJS6_S8_EEEISt17integral_constantImLm1EEJS8_EEET_DpOT0_(ptr noundef nonnull align 8 dereferenceable(28) %0, ptr noundef nonnull align 8 dereferenceable(24) %1) unnamed_addr #0 comdat align 2 {
  %3 = alloca ptr, align 8
  %4 = alloca ptr, align 8
  store ptr %0, ptr %3, align 8, !tbaa !3
  store ptr %1, ptr %4, align 8, !tbaa !3
  %5 = load ptr, ptr %3, align 8
  %6 = load ptr, ptr %4, align 8
  call void @_ZN5boost8variant26detail20variant_ca_base_implILb1ELb1EJPKNS_4json5valueENS_6system10error_codeEEECI2NS1_17variant_base_implILb1ELb1EJS6_S8_EEEISt17integral_constantImLm1EEJS8_EEET_DpOT0_(ptr noundef nonnull align 8 dereferenceable(28) %5, ptr noundef nonnull align 8 dereferenceable(24) %6)
  ret void
}

; Function Attrs: inlinehint mustprogress uwtable
define linkonce_odr hidden void @_ZN5boost8variant26detail20variant_ma_base_implILb1ELb1EJPKNS_4json5valueENS_6system10error_codeEEECI2NS1_17variant_base_implILb1ELb1EJS6_S8_EEEISt17integral_constantImLm0EEJS6_EEET_DpOT0_(ptr noundef nonnull align 8 dereferenceable(28) %0, ptr noundef nonnull align 8 dereferenceable(8) %1) unnamed_addr #0 comdat align 2 {
  %3 = alloca ptr, align 8
  %4 = alloca ptr, align 8
  store ptr %0, ptr %3, align 8, !tbaa !3
  store ptr %1, ptr %4, align 8, !tbaa !3
  %5 = load ptr, ptr %3, align 8
  %6 = load ptr, ptr %4, align 8
  call void @_ZN5boost8variant26detail20variant_mc_base_implILb1ELb1EJPKNS_4json5valueENS_6system10error_codeEEECI2NS1_17variant_base_implILb1ELb1EJS6_S8_EEEISt17integral_constantImLm0EEJS6_EEET_DpOT0_(ptr noundef nonnull align 8 dereferenceable(28) %5, ptr noundef nonnull align 8 dereferenceable(8) %6)
  ret void
}

; Function Attrs: inlinehint mustprogress uwtable
define linkonce_odr hidden void @_ZN5boost8variant26detail20variant_ma_base_implILb1ELb1EJPKNS_4json5valueENS_6system10error_codeEEECI2NS1_17variant_base_implILb1ELb1EJS6_S8_EEEISt17integral_constantImLm1EEJS8_EEET_DpOT0_(ptr noundef nonnull align 8 dereferenceable(28) %0, ptr noundef nonnull align 8 dereferenceable(24) %1) unnamed_addr #0 comdat align 2 {
  %3 = alloca ptr, align 8
  %4 = alloca ptr, align 8
  store ptr %0, ptr %3, align 8, !tbaa !3
  store ptr %1, ptr %4, align 8, !tbaa !3
  %5 = load ptr, ptr %3, align 8
  %6 = load ptr, ptr %4, align 8
  call void @_ZN5boost8variant26detail20variant_mc_base_implILb1ELb1EJPKNS_4json5valueENS_6system10error_codeEEECI2NS1_17variant_base_implILb1ELb1EJS6_S8_EEEISt17integral_constantImLm1EEJS8_EEET_DpOT0_(ptr noundef nonnull align 8 dereferenceable(28) %5, ptr noundef nonnull align 8 dereferenceable(24) %6)
  ret void
}

; Function Attrs: mustprogress uwtable
define linkonce_odr hidden void @_ZN5boost8variant27variantIJPKNS_4json5valueENS_6system10error_codeEEEC2ILm0EJS5_EvEENS0_16in_place_index_tIXT_EEEDpOT0_(ptr noundef nonnull align 8 dereferenceable(28) %0, ptr noundef nonnull align 8 dereferenceable(8) %1) unnamed_addr #5 comdat align 2 {
  %3 = alloca ptr, align 8
  %4 = alloca ptr, align 8
  store ptr %0, ptr %3, align 8, !tbaa !3
  store ptr %1, ptr %4, align 8, !tbaa !3
  %5 = load ptr, ptr %3, align 8
  %6 = load ptr, ptr %4, align 8, !tbaa !3
  call void @_ZN5boost8variant26detail20variant_ma_base_implILb1ELb1EJPKNS_4json5valueENS_6system10error_codeEEECI2NS1_17variant_base_implILb1ELb1EJS6_S8_EEEISt17integral_constantImLm0EEJS6_EEET_DpOT0_(ptr noundef nonnull align 8 dereferenceable(28) %5, ptr noundef nonnull align 8 dereferenceable(8) %6)
  ret void
}

; Function Attrs: noinline noreturn nounwind uwtable
define linkonce_odr hidden void @__clang_call_terminate(ptr noundef %0) #3 comdat {
  %2 = call ptr @__cxa_begin_catch(ptr %0) #10
  call void @_ZSt9terminatev() #34
  unreachable
}

; Function Attrs: mustprogress uwtable
define linkonce_odr hidden void @_ZN5boost8variant27variantIJPKNS_4json5valueENS_6system10error_codeEEEC2ILm1EJS7_EvEENS0_16in_place_index_tIXT_EEEDpOT0_(ptr noundef nonnull align 8 dereferenceable(28) %0, ptr noundef nonnull align 8 dereferenceable(24) %1) unnamed_addr #5 comdat align 2 {
  %3 = alloca ptr, align 8
  %4 = alloca ptr, align 8
  store ptr %0, ptr %3, align 8, !tbaa !3
  store ptr %1, ptr %4, align 8, !tbaa !3
  %5 = load ptr, ptr %3, align 8
  %6 = load ptr, ptr %4, align 8, !tbaa !3
  call void @_ZN5boost8variant26detail20variant_ma_base_implILb1ELb1EJPKNS_4json5valueENS_6system10error_codeEEECI2NS1_17variant_base_implILb1ELb1EJS6_S8_EEEISt17integral_constantImLm1EEJS8_EEET_DpOT0_(ptr noundef nonnull align 8 dereferenceable(28) %5, ptr noundef nonnull align 8 dereferenceable(24) %6)
  ret void
}

; Function Attrs: mustprogress nounwind uwtable
define linkonce_odr hidden void @_ZN5boost6system6resultIRKNS_4json5valueENS0_10error_codeEEC2IS5_TnNSt9enable_ifIXaaaasr3std14is_convertibleIT_S5_EE5valuentsr6detail22reference_to_temporaryIS4_SA_EE5valuentsr3std14is_convertibleISA_S6_EE5valueEiE4typeELi0EEEOSA_(ptr noundef nonnull align 8 dereferenceable(32) %0, ptr noundef nonnull align 8 dereferenceable(24) %1) unnamed_addr #2 comdat align 2 personality ptr @__gxx_personality_v0 {
  %3 = alloca ptr, align 8
  %4 = alloca ptr, align 8
  %5 = alloca ptr, align 8
  store ptr %0, ptr %3, align 8, !tbaa !3
  store ptr %1, ptr %4, align 8, !tbaa !3
  %6 = load ptr, ptr %3, align 8
  %7 = getelementptr inbounds nuw %"class.boost::system::result.8", ptr %6, i32 0, i32 0
  call void @llvm.lifetime.start.p0(i64 8, ptr %5) #10
  %8 = load ptr, ptr %4, align 8, !tbaa !3
  store ptr %8, ptr %5, align 8, !tbaa !3
  invoke void @_ZN5boost8variant27variantIJPKNS_4json5valueENS_6system10error_codeEEEC2ILm0EJS5_EvEENS0_16in_place_index_tIXT_EEEDpOT0_(ptr noundef nonnull align 8 dereferenceable(28) %7, ptr noundef nonnull align 8 dereferenceable(8) %5)
          to label %9 unwind label %10

9:                                                ; preds = %2
  call void @llvm.lifetime.end.p0(i64 8, ptr %5) #10
  ret void

10:                                               ; preds = %2
  %11 = landingpad { ptr, i32 }
          catch ptr null
  %12 = extractvalue { ptr, i32 } %11, 0
  call void @__clang_call_terminate(ptr %12) #34
  unreachable
}

; Function Attrs: mustprogress nounwind uwtable
define linkonce_odr hidden void @_ZN5boost6system6resultIRKNS_4json5valueENS0_10error_codeEEC2IS6_vTnNSt9enable_ifIXaasr3std14is_convertibleIT_S6_EE5valuentsr3std14is_convertibleISA_S5_EE5valueEiE4typeELi0EEEOSA_(ptr noundef nonnull align 8 dereferenceable(32) %0, ptr noundef nonnull align 8 dereferenceable(24) %1) unnamed_addr #2 comdat align 2 personality ptr @__gxx_personality_v0 {
  %3 = alloca ptr, align 8
  %4 = alloca ptr, align 8
  store ptr %0, ptr %3, align 8, !tbaa !3
  store ptr %1, ptr %4, align 8, !tbaa !3
  %5 = load ptr, ptr %3, align 8
  %6 = getelementptr inbounds nuw %"class.boost::system::result.8", ptr %5, i32 0, i32 0
  %7 = load ptr, ptr %4, align 8, !tbaa !3
  invoke void @_ZN5boost8variant27variantIJPKNS_4json5valueENS_6system10error_codeEEEC2ILm1EJS7_EvEENS0_16in_place_index_tIXT_EEEDpOT0_(ptr noundef nonnull align 8 dereferenceable(28) %6, ptr noundef nonnull align 8 dereferenceable(24) %7)
          to label %8 unwind label %9

8:                                                ; preds = %2
  ret void

9:                                                ; preds = %2
  %10 = landingpad { ptr, i32 }
          catch ptr null
  %11 = extractvalue { ptr, i32 } %10, 0
  call void @__clang_call_terminate(ptr %11) #34
  unreachable
}

; Function Attrs: mustprogress nounwind uwtable
define linkonce_odr hidden void @_ZN5boost6system10error_codeC2Ev(ptr noundef nonnull align 8 dereferenceable(24) %0) unnamed_addr #2 comdat align 2 {
  %2 = alloca ptr, align 8
  store ptr %0, ptr %2, align 8, !tbaa !3
  %3 = load ptr, ptr %2, align 8
  %4 = getelementptr inbounds nuw %"class.boost::system::error_code", ptr %3, i32 0, i32 0
  call void @llvm.memset.p0.i64(ptr align 8 %4, i8 0, i64 16, i1 false)
  %5 = getelementptr inbounds nuw %"class.boost::system::error_code", ptr %3, i32 0, i32 1
  store i64 0, ptr %5, align 8, !tbaa !53
  ret void
}

; Function Attrs: mustprogress nounwind uwtable
define void @_ZNK5boost4json5value14try_at_pointerENS_4core17basic_string_viewIcEE(ptr dead_on_unwind noalias writable sret(%"class.boost::system::result.8") align 8 %0, ptr noundef nonnull align 8 dereferenceable(24) %1, ptr %2, i64 %3) #2 align 2 {
  %5 = alloca %"class.boost::core::basic_string_view", align 8
  %6 = alloca ptr, align 8
  %7 = alloca %"class.boost::system::error_code", align 8
  %8 = alloca ptr, align 8
  %9 = alloca %"class.boost::core::basic_string_view", align 8
  %10 = alloca i32, align 4
  %11 = getelementptr inbounds nuw { ptr, i64 }, ptr %5, i32 0, i32 0
  store ptr %2, ptr %11, align 8
  %12 = getelementptr inbounds nuw { ptr, i64 }, ptr %5, i32 0, i32 1
  store i64 %3, ptr %12, align 8
  store ptr %1, ptr %6, align 8, !tbaa !3
  %13 = load ptr, ptr %6, align 8
  call void @llvm.lifetime.start.p0(i64 24, ptr %7) #10
  call void @_ZN5boost6system10error_codeC2Ev(ptr noundef nonnull align 8 dereferenceable(24) %7) #10
  call void @llvm.lifetime.start.p0(i64 8, ptr %8) #10
  call void @llvm.memcpy.p0.p0.i64(ptr align 8 %9, ptr align 8 %5, i64 16, i1 false), !tbaa.struct !47
  %14 = getelementptr inbounds nuw { ptr, i64 }, ptr %9, i32 0, i32 0
  %15 = load ptr, ptr %14, align 8
  %16 = getelementptr inbounds nuw { ptr, i64 }, ptr %9, i32 0, i32 1
  %17 = load i64, ptr %16, align 8
  %18 = call noundef ptr @_ZNK5boost4json5value12find_pointerENS_4core17basic_string_viewIcEERNS_6system10error_codeE(ptr noundef nonnull align 8 dereferenceable(24) %13, ptr %15, i64 %17, ptr noundef nonnull align 8 dereferenceable(24) %7) #10
  store ptr %18, ptr %8, align 8, !tbaa !3
  %19 = load ptr, ptr %8, align 8, !tbaa !3
  %20 = icmp ne ptr %19, null
  br i1 %20, label %22, label %21

21:                                               ; preds = %4
  call void @_ZN5boost6system6resultIRKNS_4json5valueENS0_10error_codeEEC2IS6_vTnNSt9enable_ifIXaasr3std14is_convertibleIT_S6_EE5valuentsr3std14is_convertibleISA_S5_EE5valueEiE4typeELi0EEEOSA_(ptr noundef nonnull align 8 dereferenceable(32) %0, ptr noundef nonnull align 8 dereferenceable(24) %7) #10
  store i32 1, ptr %10, align 4
  br label %24

22:                                               ; preds = %4
  %23 = load ptr, ptr %8, align 8, !tbaa !3
  call void @_ZN5boost6system6resultIRKNS_4json5valueENS0_10error_codeEEC2IS5_TnNSt9enable_ifIXaaaasr3std14is_convertibleIT_S5_EE5valuentsr6detail22reference_to_temporaryIS4_SA_EE5valuentsr3std14is_convertibleISA_S6_EE5valueEiE4typeELi0EEEOSA_(ptr noundef nonnull align 8 dereferenceable(32) %0, ptr noundef nonnull align 8 dereferenceable(24) %23) #10
  store i32 1, ptr %10, align 4
  br label %24

24:                                               ; preds = %22, %21
  call void @llvm.lifetime.end.p0(i64 8, ptr %8) #10
  call void @llvm.lifetime.end.p0(i64 24, ptr %7) #10
  ret void
}