; Function Attrs: mustprogress nounwind uwtable
define void @_ZNK5boost4json5value14try_at_pointerENS_4core17basic_string_viewIcEE(ptr dead_on_unwind noalias nocapture writable writeonly sret(%"class.boost::system::result.8") align 8 %0, ptr noundef nonnull align 8 dereferenceable(24) %1, ptr %2, i64 %3) local_unnamed_addr #7 align 2 personality ptr @__gxx_personality_v0 {
  %5 = alloca %"class.boost::system::error_code", align 8
  call void @llvm.lifetime.start.p0(i64 24, ptr nonnull %5) #48
  call void @llvm.memset.p0.i64(ptr noundef nonnull align 8 dereferenceable(24) %5, i8 0, i64 24, i1 false)
  %6 = call noundef ptr @_ZNK5boost4json5value12find_pointerENS_4core17basic_string_viewIcEERNS_6system10error_codeE(ptr noundef nonnull align 8 dereferenceable(24) %1, ptr %2, i64 %3, ptr noundef nonnull align 8 dereferenceable(24) %5) #48
  %.not = icmp eq ptr %6, null
  br i1 %.not, label %7, label %8

7:                                                ; preds = %4
  call void @llvm.memcpy.p0.p0.i64(ptr noundef nonnull align 8 dereferenceable(32) %0, ptr noundef nonnull align 8 dereferenceable(24) %5, i64 24, i1 false), !tbaa.struct !32
  br label %9

8:                                                ; preds = %4
  store ptr %6, ptr %0, align 8, !tbaa !15
  br label %9

9:                                                ; preds = %8, %7
  %.sink = phi i32 [ 2, %7 ], [ 1, %8 ]
  %10 = getelementptr inbounds nuw i8, ptr %0, i64 24
  store i32 %.sink, ptr %10, align 8
  call void @llvm.lifetime.end.p0(i64 24, ptr nonnull %5) #48
  ret void
}